target datalayout = "e-m:e-p270:32:32-p271:32:32-p272:64:64-i64:64-i128:128-f80:128-n8:16:32:64-S128"
target triple = "x86_64-pc-linux-gnu"

@.str.632 = private unnamed_addr constant [5 x i8] c"unix\00", align 1
@.str.633 = private unnamed_addr constant [4 x i8] c"dos\00", align 1
@.str.634 = private unnamed_addr constant [4 x i8] c"mac\00", align 1
@.str.635 = private unnamed_addr constant [9 x i8] c"utf8-mac\00", align 1

; Function Attrs: nounwind sspstrong uwtable
define internal i64 @parser_encode_length(ptr noundef %0, ptr noundef %1, i64 noundef %2) #0 {
  %4 = alloca i64, align 8
  %5 = alloca ptr, align 8
  %6 = alloca ptr, align 8
  %7 = alloca i64, align 8
  %8 = alloca i64, align 8
  %9 = alloca i32, align 4
  store ptr %0, ptr %5, align 8, !tbaa !6
  store ptr %1, ptr %6, align 8, !tbaa !24
  store i64 %2, ptr %7, align 8, !tbaa !16
  call void @llvm.lifetime.start.p0(i64 8, ptr %8) #25
  %10 = load i64, ptr %7, align 8, !tbaa !16
  %11 = icmp sgt i64 %10, 5
  br i1 %11, label %12, label %30

12:                                               ; preds = %3
  %13 = load ptr, ptr %6, align 8, !tbaa !24
  %14 = load i64, ptr %7, align 8, !tbaa !16
  %15 = sub nsw i64 %14, 5
  store i64 %15, ptr %8, align 8, !tbaa !16
  %16 = getelementptr inbounds i8, ptr %13, i64 %15
  %17 = load i8, ptr %16, align 1, !tbaa !12
  %18 = sext i8 %17 to i32
  %19 = icmp eq i32 %18, 45
  br i1 %19, label %20, label %30

20:                                               ; preds = %12
  %21 = load ptr, ptr %6, align 8, !tbaa !24
  %22 = load i64, ptr %8, align 8, !tbaa !16
  %23 = getelementptr inbounds i8, ptr %21, i64 %22
  %24 = getelementptr inbounds i8, ptr %23, i64 1
  %25 = call i32 @rb_memcicmp(ptr noundef %24, ptr noundef @.str.632, i64 noundef 4)
  %26 = icmp eq i32 %25, 0
  br i1 %26, label %27, label %29

27:                                               ; preds = %20
  %28 = load i64, ptr %8, align 8, !tbaa !16
  store i64 %28, ptr %4, align 8
  store i32 1, ptr %9, align 4
  br label %70

29:                                               ; preds = %20
  br label %30

30:                                               ; preds = %29, %12, %3
  %31 = load i64, ptr %7, align 8, !tbaa !16
  %32 = icmp sgt i64 %31, 4
  br i1 %32, label %33, label %68

33:                                               ; preds = %30
  %34 = load ptr, ptr %6, align 8, !tbaa !24
  %35 = load i64, ptr %7, align 8, !tbaa !16
  %36 = sub nsw i64 %35, 4
  store i64 %36, ptr %8, align 8, !tbaa !16
  %37 = getelementptr inbounds i8, ptr %34, i64 %36
  %38 = load i8, ptr %37, align 1, !tbaa !12
  %39 = sext i8 %38 to i32
  %40 = icmp eq i32 %39, 45
  br i1 %40, label %41, label %68

41:                                               ; preds = %33
  %42 = load ptr, ptr %6, align 8, !tbaa !24
  %43 = load i64, ptr %8, align 8, !tbaa !16
  %44 = getelementptr inbounds i8, ptr %42, i64 %43
  %45 = getelementptr inbounds i8, ptr %44, i64 1
  %46 = call i32 @rb_memcicmp(ptr noundef %45, ptr noundef @.str.633, i64 noundef 3)
  %47 = icmp eq i32 %46, 0
  br i1 %47, label %48, label %50

48:                                               ; preds = %41
  %49 = load i64, ptr %8, align 8, !tbaa !16
  store i64 %49, ptr %4, align 8
  store i32 1, ptr %9, align 4
  br label %70

50:                                               ; preds = %41
  %51 = load ptr, ptr %6, align 8, !tbaa !24
  %52 = load i64, ptr %8, align 8, !tbaa !16
  %53 = getelementptr inbounds i8, ptr %51, i64 %52
  %54 = getelementptr inbounds i8, ptr %53, i64 1
  %55 = call i32 @rb_memcicmp(ptr noundef %54, ptr noundef @.str.634, i64 noundef 3)
  %56 = icmp eq i32 %55, 0
  br i1 %56, label %57, label %67

57:                                               ; preds = %50
  %58 = load i64, ptr %7, align 8, !tbaa !16
  %59 = icmp eq i64 %58, 8
  br i1 %59, label %60, label %65

60:                                               ; preds = %57
  %61 = load ptr, ptr %6, align 8, !tbaa !24
  %62 = load i64, ptr %7, align 8, !tbaa !16
  %63 = call i32 @rb_memcicmp(ptr noundef %61, ptr noundef @.str.635, i64 noundef %62)
  %64 = icmp eq i32 %63, 0
  br i1 %64, label %67, label %65

65:                                               ; preds = %60, %57
  %66 = load i64, ptr %8, align 8, !tbaa !16
  store i64 %66, ptr %4, align 8
  store i32 1, ptr %9, align 4
  br label %70

67:                                               ; preds = %60, %50
  br label %68

68:                                               ; preds = %67, %33, %30
  %69 = load i64, ptr %7, align 8, !tbaa !16
  store i64 %69, ptr %4, align 8
  store i32 1, ptr %9, align 4
  br label %70

70:                                               ; preds = %68, %65, %48, %27
  call void @llvm.lifetime.end.p0(i64 8, ptr %8) #25
  %71 = load i64, ptr %4, align 8
  ret i64 %71
}