; Function Attrs: nounwind sspstrong uwtable
define internal i64 @parser_encode_length(ptr readnone captures(none) %0, ptr noundef %1, i64 noundef %2) #0 {
  %4 = icmp sgt i64 %2, 5
  br i1 %4, label %5, label %14

5:                                                ; preds = %3
  %6 = add nsw i64 %2, -5
  %7 = getelementptr inbounds nuw i8, ptr %1, i64 %6
  %8 = load i8, ptr %7, align 1, !tbaa !6
  %9 = icmp eq i8 %8, 45
  br i1 %9, label %10, label %.thread

10:                                               ; preds = %5
  %11 = getelementptr inbounds nuw i8, ptr %7, i64 1
  %12 = tail call i32 @rb_memcicmp(ptr noundef nonnull %11, ptr noundef nonnull @.str.632, i64 noundef 4) #31
  %13 = icmp eq i32 %12, 0
  br i1 %13, label %33, label %.thread

14:                                               ; preds = %3
  %15 = icmp eq i64 %2, 5
  br i1 %15, label %.thread, label %32

.thread:                                          ; preds = %5, %10, %14
  %16 = add nsw i64 %2, -4
  %17 = getelementptr inbounds nuw i8, ptr %1, i64 %16
  %18 = load i8, ptr %17, align 1, !tbaa !6
  %19 = icmp eq i8 %18, 45
  br i1 %19, label %20, label %32

20:                                               ; preds = %.thread
  %21 = getelementptr inbounds nuw i8, ptr %17, i64 1
  %22 = tail call i32 @rb_memcicmp(ptr noundef nonnull %21, ptr noundef nonnull @.str.633, i64 noundef 3) #31
  %23 = icmp eq i32 %22, 0
  br i1 %23, label %33, label %24

24:                                               ; preds = %20
  %25 = tail call i32 @rb_memcicmp(ptr noundef nonnull %21, ptr noundef nonnull @.str.634, i64 noundef 3) #31
  %26 = icmp eq i32 %25, 0
  br i1 %26, label %27, label %32

27:                                               ; preds = %24
  %28 = icmp eq i64 %2, 8
  br i1 %28, label %29, label %33

29:                                               ; preds = %27
  %30 = tail call i32 @rb_memcicmp(ptr noundef nonnull %1, ptr noundef nonnull @.str.635, i64 noundef 8) #31
  %31 = icmp eq i32 %30, 0
  br i1 %31, label %32, label %33

32:                                               ; preds = %24, %29, %.thread, %14
  br label %33

33:                                               ; preds = %27, %29, %20, %10, %32
  %.0 = phi i64 [ %2, %32 ], [ %6, %10 ], [ %16, %20 ], [ 4, %29 ], [ %16, %27 ]
  ret i64 %.0
}